EXPORTS
	??0CTestProperty@@QAE@AAVCTestStep@@@Z @ 1 NONAME ; CTestProperty::CTestProperty(class CTestStep &)
	??0CTestStepSmokeTest@@IAE@XZ @ 2 NONAME ; CTestStepSmokeTest::CTestStepSmokeTest(void)
	??1CTestActive@@UAE@XZ @ 3 NONAME ; CTestActive::~CTestActive(void)
	??1CTestProperty@@UAE@XZ @ 4 NONAME ; CTestProperty::~CTestProperty(void)
	??1CTestStepSmokeTest@@UAE@XZ @ 5 NONAME ; CTestStepSmokeTest::~CTestStepSmokeTest(void)
	??1CTestTimeOutTimer@@UAE@XZ @ 6 NONAME ; CTestTimeOutTimer::~CTestTimeOutTimer(void)
	?Activate@CTestActive@@QAEXXZ @ 7 NONAME ; void CTestActive::Activate(void)
	?GetCapability@CTestStepSmokeTest@@IAEHVTPtrC16@@AAW4TCapability@@@Z @ 8 NONAME ; int CTestStepSmokeTest::GetCapability(class TPtrC16, enum TCapability &)
	?GetPropertyL@CTestProperty@@QAEHVTUid@@HAAH@Z @ 9 NONAME ; int CTestProperty::GetPropertyL(class TUid, int, int &)
	?GetPropertyL@CTestProperty@@QAEHVTUid@@HAAVTDes16@@@Z @ 10 NONAME ; int CTestProperty::GetPropertyL(class TUid, int, class TDes16 &)
	?GetPropertyL@CTestProperty@@QAEHVTUid@@HAAVTDes8@@@Z @ 11 NONAME ; int CTestProperty::GetPropertyL(class TUid, int, class TDes8 &)
	?NewL@CTestActive@@SAPAV1@AAVMTestActiveCallback@@H@Z @ 12 NONAME ; class CTestActive * CTestActive::NewL(class MTestActiveCallback &, int)
	?NewL@CTestTimeOutTimer@@SAPAV1@AAVMTestTimeOutTimerCallback@@H@Z @ 13 NONAME ; class CTestTimeOutTimer * CTestTimeOutTimer::NewL(class MTestTimeOutTimerCallback &, int)
	?NewLC@CTestActive@@SAPAV1@AAVMTestActiveCallback@@H@Z @ 14 NONAME ; class CTestActive * CTestActive::NewLC(class MTestActiveCallback &, int)
	?NewLC@CTestTimeOutTimer@@SAPAV1@AAVMTestTimeOutTimerCallback@@H@Z @ 15 NONAME ; class CTestTimeOutTimer * CTestTimeOutTimer::NewLC(class MTestTimeOutTimerCallback &, int)
	?SetPropertyL@CTestProperty@@QAEHVTUid@@HABVTDesC16@@@Z @ 16 NONAME ; int CTestProperty::SetPropertyL(class TUid, int, class TDesC16 const &)
	?SetPropertyL@CTestProperty@@QAEHVTUid@@HABVTDesC8@@@Z @ 17 NONAME ; int CTestProperty::SetPropertyL(class TUid, int, class TDesC8 const &)
	?SetPropertyL@CTestProperty@@QAEHVTUid@@HH@Z @ 18 NONAME ; int CTestProperty::SetPropertyL(class TUid, int, int)
	?VerifyUTCTime@CTestStepSmokeTest@@IAEHVTTime@@@Z @ 19 NONAME ; int CTestStepSmokeTest::VerifyUTCTime(class TTime)
	?doTestStepPostambleL@CTestStepSmokeTest@@UAE?AW4TVerdict@@XZ @ 20 NONAME ; enum TVerdict CTestStepSmokeTest::doTestStepPostambleL(void)
	?doTestStepPreambleL@CTestStepSmokeTest@@UAE?AW4TVerdict@@XZ @ 21 NONAME ; enum TVerdict CTestStepSmokeTest::doTestStepPreambleL(void)

